; Function Attrs: mustprogress nofree nounwind null_pointer_is_valid sspstrong willreturn memory(read, inaccessiblemem: none) uwtable
define internal range(i32 0, 2) i32 @nlm_msg_res_unmatched_equal(ptr noundef readonly captures(none) %0, ptr noundef readonly captures(none) %1) #4 {
  %3 = getelementptr inbounds nuw i8, ptr %0, i64 24
  %4 = load i32, ptr %3, align 8
  %5 = getelementptr inbounds nuw i8, ptr %1, i64 24
  %6 = load i32, ptr %5, align 8
  %.not = icmp eq i32 %4, %6
  br i1 %.not, label %7, label %15

7:                                                ; preds = %2
  %8 = getelementptr inbounds nuw i8, ptr %0, i64 32
  %9 = load ptr, ptr %8, align 8
  %10 = getelementptr inbounds nuw i8, ptr %1, i64 32
  %11 = load ptr, ptr %10, align 8
  %12 = sext i32 %4 to i64
  %bcmp = tail call i32 @bcmp(ptr %9, ptr %11, i64 %12)
  %13 = icmp eq i32 %bcmp, 0
  %14 = zext i1 %13 to i32
  br label %15

15:                                               ; preds = %2, %7
  %.0 = phi i32 [ %14, %7 ], [ 0, %2 ]
  ret i32 %.0
}